target datalayout = "e-m:e-p270:32:32-p271:32:32-p272:64:64-i64:64-i128:128-f80:128-n8:16:32:64-S128"
target triple = "x86_64-pc-linux-gnu"

%"class.std::ios_base::Init" = type { i8 }
%"class.std::basic_ostream" = type { ptr, %"class.std::basic_ios" }
%"class.std::basic_ios" = type { %"class.std::ios_base", ptr, i8, i8, ptr, ptr, ptr, ptr }
%"class.std::ios_base" = type { ptr, i64, i64, i32, i32, i32, ptr, %"struct.std::ios_base::_Words", [8 x %"struct.std::ios_base::_Words"], i32, ptr, %"class.std::locale" }
%"struct.std::ios_base::_Words" = type { ptr, i64 }
%"class.std::locale" = type { ptr }
%"class.gsl::span" = type { %"class.gsl::span<int>::storage_type" }
%"class.gsl::span<int>::storage_type" = type { %"class.gsl::details::extent_type", ptr }
%"class.gsl::details::extent_type" = type { i64 }
%"struct.gsl::span<int>::KnownNotNull" = type { ptr }
%"class.gsl::details::extent_type.0" = type { i8 }

$_ZN3gsl4spanIiLm18446744073709551615EEC2ILm10ETnNSt9enable_ifIXsr7details28is_allowed_extent_conversionIXT_ELm18446744073709551615EEE5valueEiE4typeELi0EEERAT__i = comdat any

$_ZNK3gsl4spanIiLm18446744073709551615EEixEm = comdat any

$_ZN3gsl4spanIiLm18446744073709551615EE12storage_typeINS_7details11extent_typeILm18446744073709551615EEEEC2INS4_ILm10EEEEENS1_12KnownNotNullET_ = comdat any

$_ZN3gsl7details11extent_typeILm18446744073709551615EEC2ILm10EEENS1_IXT_EEE = comdat any

$_ZNK3gsl7details11extent_typeILm10EE4sizeEv = comdat any

$_ZNK3gsl4spanIiLm18446744073709551615EE4sizeEv = comdat any

$_ZN3gsl7details9terminateEv = comdat any

$_ZNK3gsl4spanIiLm18446744073709551615EE4dataEv = comdat any

$_ZNK3gsl7details11extent_typeILm18446744073709551615EE4sizeEv = comdat any

$_ZNK3gsl4spanIiLm18446744073709551615EE12storage_typeINS_7details11extent_typeILm18446744073709551615EEEE4dataEv = comdat any

$_ZNSt11char_traitsIcE6lengthEPKc = comdat any

$_ZStorSt12_Ios_IostateS_ = comdat any

@_ZStL8__ioinit = internal global %"class.std::ios_base::Init" zeroinitializer, align 1
@__dso_handle = external hidden global i8
@_ZSt4cout = external global %"class.std::basic_ostream", align 8
@.str = private unnamed_addr constant [145 x i8] c"Running main() from generated/home/dtcxzyw/WorkSpace/Projects/compilers/llvm-opt-benchmark/bench/ms-gsl/GSL/tests/no_exception_ensure_tests.cpp\0A\00", align 1
@llvm.global_ctors = appending global [1 x { i32, ptr, ptr }] [{ i32, ptr, ptr } { i32 65535, ptr @_GLOBAL__sub_I_no_exception_ensure_tests.cpp, ptr null }]

; Function Attrs: nounwind uwtable
define internal void @__cxx_global_var_init() #0 section ".text.startup" {
  call void @_ZNSt8ios_base4InitC1Ev(ptr noundef nonnull align 1 dereferenceable(1) @_ZStL8__ioinit)
  %1 = call i32 @__cxa_atexit(ptr @_ZNSt8ios_base4InitD1Ev, ptr @_ZStL8__ioinit, ptr @__dso_handle) #3
  ret void
}

declare void @_ZNSt8ios_base4InitC1Ev(ptr noundef nonnull align 1 dereferenceable(1)) unnamed_addr #1

; Function Attrs: nounwind
declare void @_ZNSt8ios_base4InitD1Ev(ptr noundef nonnull align 1 dereferenceable(1)) unnamed_addr #2

; Function Attrs: nounwind
declare i32 @__cxa_atexit(ptr, ptr, ptr) #3

; Function Attrs: mustprogress nounwind uwtable
define dso_local noundef i32 @_Z27operator_subscript_no_throwv() #4 {
  %1 = alloca [10 x i32], align 16
  %2 = alloca %"class.gsl::span", align 8
  call void @llvm.lifetime.start.p0(i64 40, ptr %1) #3
  call void @llvm.lifetime.start.p0(i64 16, ptr %2) #3
  call void @_ZN3gsl4spanIiLm18446744073709551615EEC2ILm10ETnNSt9enable_ifIXsr7details28is_allowed_extent_conversionIXT_ELm18446744073709551615EEE5valueEiE4typeELi0EEERAT__i(ptr noundef nonnull align 8 dereferenceable(16) %2, ptr noundef nonnull align 4 dereferenceable(40) %1) #3
  %3 = call noundef nonnull align 4 dereferenceable(4) ptr @_ZNK3gsl4spanIiLm18446744073709551615EEixEm(ptr noundef nonnull align 8 dereferenceable(16) %2, i64 noundef 11) #3
  %4 = load i32, ptr %3, align 4
  call void @llvm.lifetime.end.p0(i64 16, ptr %2) #3
  call void @llvm.lifetime.end.p0(i64 40, ptr %1) #3
  ret i32 %4
}

; Function Attrs: nocallback nofree nosync nounwind willreturn memory(argmem: readwrite)
declare void @llvm.lifetime.start.p0(i64 immarg, ptr captures(none)) #5

; Function Attrs: mustprogress nounwind uwtable
define linkonce_odr dso_local void @_ZN3gsl4spanIiLm18446744073709551615EEC2ILm10ETnNSt9enable_ifIXsr7details28is_allowed_extent_conversionIXT_ELm18446744073709551615EEE5valueEiE4typeELi0EEERAT__i(ptr noundef nonnull align 8 dereferenceable(16) %0, ptr noundef nonnull align 4 dereferenceable(40) %1) unnamed_addr #4 comdat align 2 {
  %3 = alloca ptr, align 8
  %4 = alloca ptr, align 8
  %5 = alloca %"struct.gsl::span<int>::KnownNotNull", align 8
  store ptr %0, ptr %3, align 8
  store ptr %1, ptr %4, align 8
  %6 = load ptr, ptr %3, align 8
  %7 = getelementptr inbounds nuw %"class.gsl::span", ptr %6, i32 0, i32 0
  %8 = getelementptr inbounds nuw %"struct.gsl::span<int>::KnownNotNull", ptr %5, i32 0, i32 0
  %9 = load ptr, ptr %4, align 8
  %10 = getelementptr inbounds [10 x i32], ptr %9, i64 0, i64 0
  store ptr %10, ptr %8, align 8
  %11 = getelementptr inbounds nuw %"struct.gsl::span<int>::KnownNotNull", ptr %5, i32 0, i32 0
  %12 = load ptr, ptr %11, align 8
  call void @_ZN3gsl4spanIiLm18446744073709551615EE12storage_typeINS_7details11extent_typeILm18446744073709551615EEEEC2INS4_ILm10EEEEENS1_12KnownNotNullET_(ptr noundef nonnull align 8 dereferenceable(16) %7, ptr %12)
  ret void
}

; Function Attrs: mustprogress nounwind uwtable
define linkonce_odr dso_local noundef nonnull align 4 dereferenceable(4) ptr @_ZNK3gsl4spanIiLm18446744073709551615EEixEm(ptr noundef nonnull align 8 dereferenceable(16) %0, i64 noundef %1) #4 comdat align 2 {
  %3 = alloca ptr, align 8
  %4 = alloca i64, align 8
  store ptr %0, ptr %3, align 8
  store i64 %1, ptr %4, align 8
  %5 = load ptr, ptr %3, align 8
  %6 = load i64, ptr %4, align 8
  %7 = call noundef i64 @_ZNK3gsl4spanIiLm18446744073709551615EE4sizeEv(ptr noundef nonnull align 8 dereferenceable(16) %5) #3
  %8 = icmp ult i64 %6, %7
  %9 = xor i1 %8, true
  %10 = xor i1 %9, true
  %11 = zext i1 %10 to i64
  %12 = call i64 @llvm.expect.i64(i64 %11, i64 1)
  %13 = icmp ne i64 %12, 0
  br i1 %13, label %14, label %15

14:                                               ; preds = %2
  br label %17

15:                                               ; preds = %2
  call void @_ZN3gsl7details9terminateEv() #12
  unreachable

16:                                               ; No predecessors!
  br label %17

17:                                               ; preds = %16, %14
  %18 = call noundef ptr @_ZNK3gsl4spanIiLm18446744073709551615EE4dataEv(ptr noundef nonnull align 8 dereferenceable(16) %5) #3
  %19 = load i64, ptr %4, align 8
  %20 = getelementptr inbounds nuw i32, ptr %18, i64 %19
  ret ptr %20
}

; Function Attrs: nocallback nofree nosync nounwind willreturn memory(argmem: readwrite)
declare void @llvm.lifetime.end.p0(i64 immarg, ptr captures(none)) #5

; Function Attrs: mustprogress noreturn nounwind uwtable
define dso_local void @_Z14test_terminatev() #6 {
  call void @exit(i32 noundef 0) #12
  unreachable
}

; Function Attrs: noreturn nounwind
declare void @exit(i32 noundef) #7

; Function Attrs: mustprogress nounwind uwtable
define dso_local void @_Z25setup_termination_handlerv() #4 {
  %1 = call noundef ptr @_ZSt13set_terminatePFvvE(ptr noundef @_Z14test_terminatev) #3
  ret void
}

; Function Attrs: nounwind
declare noundef ptr @_ZSt13set_terminatePFvvE(ptr noundef) #2

; Function Attrs: mustprogress norecurse nounwind uwtable
define dso_local noundef i32 @main() #8 {
  %1 = alloca i32, align 4
  store i32 0, ptr %1, align 4
  %2 = call noundef nonnull align 8 dereferenceable(8) ptr @_ZStlsISt11char_traitsIcEERSt13basic_ostreamIcT_ES5_PKc(ptr noundef nonnull align 8 dereferenceable(8) @_ZSt4cout, ptr noundef @.str)
  call void @_Z25setup_termination_handlerv() #3
  %3 = call noundef i32 @_Z27operator_subscript_no_throwv() #3
  ret i32 -1
}

; Function Attrs: inlinehint mustprogress nounwind uwtable
define available_externally noundef nonnull align 8 dereferenceable(8) ptr @_ZStlsISt11char_traitsIcEERSt13basic_ostreamIcT_ES5_PKc(ptr noundef nonnull align 8 dereferenceable(8) %0, ptr noundef %1) #9 {
  %3 = alloca ptr, align 8
  %4 = alloca ptr, align 8
  store ptr %0, ptr %3, align 8
  store ptr %1, ptr %4, align 8
  %5 = load ptr, ptr %4, align 8
  %6 = icmp ne ptr %5, null
  br i1 %6, label %13, label %7

7:                                                ; preds = %2
  %8 = load ptr, ptr %3, align 8
  %9 = load ptr, ptr %8, align 8
  %10 = getelementptr i8, ptr %9, i64 -24
  %11 = load i64, ptr %10, align 8
  %12 = getelementptr inbounds i8, ptr %8, i64 %11
  call void @_ZNSt9basic_iosIcSt11char_traitsIcEE8setstateESt12_Ios_Iostate(ptr noundef nonnull align 8 dereferenceable(264) %12, i32 noundef 1)
  br label %19

13:                                               ; preds = %2
  %14 = load ptr, ptr %3, align 8
  %15 = load ptr, ptr %4, align 8
  %16 = load ptr, ptr %4, align 8
  %17 = call noundef i64 @_ZNSt11char_traitsIcE6lengthEPKc(ptr noundef %16)
  %18 = call noundef nonnull align 8 dereferenceable(8) ptr @_ZSt16__ostream_insertIcSt11char_traitsIcEERSt13basic_ostreamIT_T0_ES6_PKS3_l(ptr noundef nonnull align 8 dereferenceable(8) %14, ptr noundef %15, i64 noundef %17)
  br label %19

19:                                               ; preds = %13, %7
  %20 = load ptr, ptr %3, align 8
  ret ptr %20
}

; Function Attrs: mustprogress nounwind uwtable
define linkonce_odr dso_local void @_ZN3gsl4spanIiLm18446744073709551615EE12storage_typeINS_7details11extent_typeILm18446744073709551615EEEEC2INS4_ILm10EEEEENS1_12KnownNotNullET_(ptr noundef nonnull align 8 dereferenceable(16) %0, ptr %1) unnamed_addr #4 comdat align 2 {
  %3 = alloca %"struct.gsl::span<int>::KnownNotNull", align 8
  %4 = alloca ptr, align 8
  %5 = getelementptr inbounds nuw %"struct.gsl::span<int>::KnownNotNull", ptr %3, i32 0, i32 0
  store ptr %1, ptr %5, align 8
  store ptr %0, ptr %4, align 8
  %6 = load ptr, ptr %4, align 8
  call void @_ZN3gsl7details11extent_typeILm18446744073709551615EEC2ILm10EEENS1_IXT_EEE(ptr noundef nonnull align 8 dereferenceable(8) %6)
  %7 = getelementptr inbounds nuw %"class.gsl::span<int>::storage_type", ptr %6, i32 0, i32 1
  %8 = getelementptr inbounds nuw %"struct.gsl::span<int>::KnownNotNull", ptr %3, i32 0, i32 0
  %9 = load ptr, ptr %8, align 8
  store ptr %9, ptr %7, align 8
  ret void
}

; Function Attrs: mustprogress nounwind uwtable
define linkonce_odr dso_local void @_ZN3gsl7details11extent_typeILm18446744073709551615EEC2ILm10EEENS1_IXT_EEE(ptr noundef nonnull align 8 dereferenceable(8) %0) unnamed_addr #4 comdat align 2 {
  %2 = alloca %"class.gsl::details::extent_type.0", align 1
  %3 = alloca ptr, align 8
  store ptr %0, ptr %3, align 8
  %4 = load ptr, ptr %3, align 8
  %5 = getelementptr inbounds nuw %"class.gsl::details::extent_type", ptr %4, i32 0, i32 0
  %6 = call noundef i64 @_ZNK3gsl7details11extent_typeILm10EE4sizeEv(ptr noundef nonnull align 1 dereferenceable(1) %2) #3
  store i64 %6, ptr %5, align 8
  ret void
}

; Function Attrs: mustprogress nounwind uwtable
define linkonce_odr dso_local noundef i64 @_ZNK3gsl7details11extent_typeILm10EE4sizeEv(ptr noundef nonnull align 1 dereferenceable(1) %0) #4 comdat align 2 {
  %2 = alloca ptr, align 8
  store ptr %0, ptr %2, align 8
  ret i64 10
}

; Function Attrs: mustprogress nounwind uwtable
define linkonce_odr dso_local noundef i64 @_ZNK3gsl4spanIiLm18446744073709551615EE4sizeEv(ptr noundef nonnull align 8 dereferenceable(16) %0) #4 comdat align 2 {
  %2 = alloca ptr, align 8
  store ptr %0, ptr %2, align 8
  %3 = load ptr, ptr %2, align 8
  %4 = getelementptr inbounds nuw %"class.gsl::span", ptr %3, i32 0, i32 0
  %5 = call noundef i64 @_ZNK3gsl7details11extent_typeILm18446744073709551615EE4sizeEv(ptr noundef nonnull align 8 dereferenceable(8) %4) #3
  ret i64 %5
}

; Function Attrs: nocallback nofree nosync nounwind willreturn memory(none)
declare i64 @llvm.expect.i64(i64, i64) #10

; Function Attrs: inlinehint mustprogress noreturn nounwind uwtable
define linkonce_odr dso_local void @_ZN3gsl7details9terminateEv() #11 comdat {
  call void @_ZSt9terminatev() #12
  unreachable
}

; Function Attrs: mustprogress nounwind uwtable
define linkonce_odr dso_local noundef ptr @_ZNK3gsl4spanIiLm18446744073709551615EE4dataEv(ptr noundef nonnull align 8 dereferenceable(16) %0) #4 comdat align 2 {
  %2 = alloca ptr, align 8
  store ptr %0, ptr %2, align 8
  %3 = load ptr, ptr %2, align 8
  %4 = getelementptr inbounds nuw %"class.gsl::span", ptr %3, i32 0, i32 0
  %5 = call noundef ptr @_ZNK3gsl4spanIiLm18446744073709551615EE12storage_typeINS_7details11extent_typeILm18446744073709551615EEEE4dataEv(ptr noundef nonnull align 8 dereferenceable(16) %4) #3
  ret ptr %5
}

; Function Attrs: mustprogress nounwind uwtable
define linkonce_odr dso_local noundef i64 @_ZNK3gsl7details11extent_typeILm18446744073709551615EE4sizeEv(ptr noundef nonnull align 8 dereferenceable(8) %0) #4 comdat align 2 {
  %2 = alloca ptr, align 8
  store ptr %0, ptr %2, align 8
  %3 = load ptr, ptr %2, align 8
  %4 = getelementptr inbounds nuw %"class.gsl::details::extent_type", ptr %3, i32 0, i32 0
  %5 = load i64, ptr %4, align 8
  ret i64 %5
}

; Function Attrs: noreturn nounwind
declare void @_ZSt9terminatev() #7

; Function Attrs: mustprogress nounwind uwtable
define linkonce_odr dso_local noundef ptr @_ZNK3gsl4spanIiLm18446744073709551615EE12storage_typeINS_7details11extent_typeILm18446744073709551615EEEE4dataEv(ptr noundef nonnull align 8 dereferenceable(16) %0) #4 comdat align 2 {
  %2 = alloca ptr, align 8
  store ptr %0, ptr %2, align 8
  %3 = load ptr, ptr %2, align 8
  %4 = getelementptr inbounds nuw %"class.gsl::span<int>::storage_type", ptr %3, i32 0, i32 1
  %5 = load ptr, ptr %4, align 8
  ret ptr %5
}

; Function Attrs: mustprogress nounwind uwtable
define available_externally void @_ZNSt9basic_iosIcSt11char_traitsIcEE8setstateESt12_Ios_Iostate(ptr noundef nonnull align 8 dereferenceable(264) %0, i32 noundef %1) #4 align 2 {
  %3 = alloca ptr, align 8
  %4 = alloca i32, align 4
  store ptr %0, ptr %3, align 8
  store i32 %1, ptr %4, align 4
  %5 = load ptr, ptr %3, align 8
  %6 = call noundef i32 @_ZNKSt9basic_iosIcSt11char_traitsIcEE7rdstateEv(ptr noundef nonnull align 8 dereferenceable(264) %5)
  %7 = load i32, ptr %4, align 4
  %8 = call noundef i32 @_ZStorSt12_Ios_IostateS_(i32 noundef %6, i32 noundef %7)
  call void @_ZNSt9basic_iosIcSt11char_traitsIcEE5clearESt12_Ios_Iostate(ptr noundef nonnull align 8 dereferenceable(264) %5, i32 noundef %8)
  ret void
}

declare noundef nonnull align 8 dereferenceable(8) ptr @_ZSt16__ostream_insertIcSt11char_traitsIcEERSt13basic_ostreamIT_T0_ES6_PKS3_l(ptr noundef nonnull align 8 dereferenceable(8), ptr noundef, i64 noundef) #1

; Function Attrs: mustprogress nounwind uwtable
define linkonce_odr dso_local noundef i64 @_ZNSt11char_traitsIcE6lengthEPKc(ptr noundef %0) #4 comdat align 2 {
  %2 = alloca ptr, align 8
  store ptr %0, ptr %2, align 8
  %3 = load ptr, ptr %2, align 8
  %4 = call i64 @strlen(ptr noundef %3) #3
  ret i64 %4
}

declare void @_ZNSt9basic_iosIcSt11char_traitsIcEE5clearESt12_Ios_Iostate(ptr noundef nonnull align 8 dereferenceable(264), i32 noundef) #1

; Function Attrs: inlinehint mustprogress nounwind uwtable
define linkonce_odr dso_local noundef i32 @_ZStorSt12_Ios_IostateS_(i32 noundef %0, i32 noundef %1) #9 comdat {
  %3 = alloca i32, align 4
  %4 = alloca i32, align 4
  store i32 %0, ptr %3, align 4
  store i32 %1, ptr %4, align 4
  %5 = load i32, ptr %3, align 4
  %6 = load i32, ptr %4, align 4
  %7 = or i32 %5, %6
  ret i32 %7
}

; Function Attrs: mustprogress nounwind uwtable
define available_externally noundef i32 @_ZNKSt9basic_iosIcSt11char_traitsIcEE7rdstateEv(ptr noundef nonnull align 8 dereferenceable(264) %0) #4 align 2 {
  %2 = alloca ptr, align 8
  store ptr %0, ptr %2, align 8
  %3 = load ptr, ptr %2, align 8
  %4 = getelementptr inbounds nuw %"class.std::ios_base", ptr %3, i32 0, i32 5
  %5 = load i32, ptr %4, align 8
  ret i32 %5
}

; Function Attrs: nounwind
declare i64 @strlen(ptr noundef) #2

; Function Attrs: nounwind uwtable
define internal void @_GLOBAL__sub_I_no_exception_ensure_tests.cpp() #0 section ".text.startup" {
  call void @__cxx_global_var_init()
  ret void
}


!llvm.module.flags = !{!0, !1, !2, !3}

!0 = !{i32 1, !"wchar_size", i32 4}
!1 = !{i32 8, !"PIC Level", i32 2}
!2 = !{i32 7, !"PIE Level", i32 2}
!3 = !{i32 7, !"uwtable", i32 2}
