; ModuleID = 'bench/ms-gsl/original/no_exception_ensure_tests.ll'
source_filename = "bench/ms-gsl/original/no_exception_ensure_tests.ll"
target datalayout = "e-m:e-p270:32:32-p271:32:32-p272:64:64-i64:64-i128:128-f80:128-n8:16:32:64-S128"
target triple = "x86_64-pc-linux-gnu"

%"class.std::ios_base::Init" = type { i8 }
%"class.std::basic_ostream" = type { ptr, %"class.std::basic_ios" }
%"class.std::basic_ios" = type { %"class.std::ios_base", ptr, i8, i8, ptr, ptr, ptr, ptr }
%"class.std::ios_base" = type { ptr, i64, i64, i32, i32, i32, ptr, %"struct.std::ios_base::_Words", [8 x %"struct.std::ios_base::_Words"], i32, ptr, %"class.std::locale" }
%"struct.std::ios_base::_Words" = type { ptr, i64 }
%"class.std::locale" = type { ptr }

$_ZN3gsl7details9terminateEv = comdat any

@_ZStL8__ioinit = internal global %"class.std::ios_base::Init" zeroinitializer, align 1
@__dso_handle = external hidden global i8
@_ZSt4cout = external global %"class.std::basic_ostream", align 8
@.str = private unnamed_addr constant [145 x i8] c"Running main() from generated/home/dtcxzyw/WorkSpace/Projects/compilers/llvm-opt-benchmark/bench/ms-gsl/GSL/tests/no_exception_ensure_tests.cpp\0A\00", align 1
@llvm.global_ctors = appending global [1 x { i32, ptr, ptr }] [{ i32, ptr, ptr } { i32 65535, ptr @_GLOBAL__sub_I_no_exception_ensure_tests.cpp, ptr null }]

declare void @_ZNSt8ios_base4InitC1Ev(ptr noundef nonnull align 1 dereferenceable(1)) unnamed_addr #0

; Function Attrs: nounwind
declare void @_ZNSt8ios_base4InitD1Ev(ptr noundef nonnull align 1 dereferenceable(1)) unnamed_addr #1

; Function Attrs: nofree nounwind
declare i32 @__cxa_atexit(ptr, ptr, ptr) local_unnamed_addr #2

; Function Attrs: mustprogress noreturn nounwind uwtable
define dso_local noundef i32 @_Z27operator_subscript_no_throwv() local_unnamed_addr #3 {
  tail call void @_ZN3gsl7details9terminateEv() #11
  unreachable
}

; Function Attrs: mustprogress nofree noreturn nounwind uwtable
define dso_local void @_Z14test_terminatev() #4 {
  tail call void @exit(i32 noundef 0) #11
  unreachable
}

; Function Attrs: nofree noreturn nounwind
declare void @exit(i32 noundef) local_unnamed_addr #5

; Function Attrs: mustprogress nounwind uwtable
define dso_local void @_Z25setup_termination_handlerv() local_unnamed_addr #6 {
  %1 = tail call noundef ptr @_ZSt13set_terminatePFvvE(ptr noundef nonnull @_Z14test_terminatev) #12
  ret void
}

; Function Attrs: nounwind
declare noundef ptr @_ZSt13set_terminatePFvvE(ptr noundef) local_unnamed_addr #1

; Function Attrs: mustprogress norecurse noreturn nounwind uwtable
define dso_local noundef i32 @main() local_unnamed_addr #7 {
  %1 = tail call noundef nonnull align 8 dereferenceable(8) ptr @_ZSt16__ostream_insertIcSt11char_traitsIcEERSt13basic_ostreamIT_T0_ES6_PKS3_l(ptr noundef nonnull align 8 dereferenceable(8) @_ZSt4cout, ptr noundef nonnull @.str, i64 noundef 144) #12
  %2 = tail call noundef ptr @_ZSt13set_terminatePFvvE(ptr noundef nonnull @_Z14test_terminatev) #12
  tail call void @_ZN3gsl7details9terminateEv() #11
  unreachable
}

; Function Attrs: inlinehint mustprogress noreturn nounwind uwtable
define linkonce_odr dso_local void @_ZN3gsl7details9terminateEv() local_unnamed_addr #8 comdat {
  tail call void @_ZSt9terminatev() #11
  unreachable
}

; Function Attrs: cold nofree noreturn nounwind
declare void @_ZSt9terminatev() local_unnamed_addr #9

declare noundef nonnull align 8 dereferenceable(8) ptr @_ZSt16__ostream_insertIcSt11char_traitsIcEERSt13basic_ostreamIT_T0_ES6_PKS3_l(ptr noundef nonnull align 8 dereferenceable(8), ptr noundef, i64 noundef) local_unnamed_addr #0

; Function Attrs: nounwind uwtable
define internal void @_GLOBAL__sub_I_no_exception_ensure_tests.cpp() #10 section ".text.startup" {
  tail call void @_ZNSt8ios_base4InitC1Ev(ptr noundef nonnull align 1 dereferenceable(1) @_ZStL8__ioinit) #12
  %1 = tail call i32 @__cxa_atexit(ptr nonnull @_ZNSt8ios_base4InitD1Ev, ptr nonnull @_ZStL8__ioinit, ptr nonnull @__dso_handle) #12
  ret void
}


!llvm.module.flags = !{!0, !1, !2, !3}

!0 = !{i32 1, !"wchar_size", i32 4}
!1 = !{i32 8, !"PIC Level", i32 2}
!2 = !{i32 7, !"PIE Level", i32 2}
!3 = !{i32 7, !"uwtable", i32 2}
